target datalayout = "e-m:e-p270:32:32-p271:32:32-p272:64:64-i64:64-i128:128-f80:128-n8:16:32:64-S128"
target triple = "x86_64-pc-linux-gnu"

%struct.archive_read = type { %struct.archive, ptr, i32, i64, i64, %struct.archive_read_client, [16 x %struct.archive_read_filter_bidder], ptr, i32, i64, i32, i32, [16 x %struct.archive_format_descriptor], ptr, ptr, ptr, %struct.anon }
%struct.archive = type { i32, i32, ptr, i32, ptr, i32, i32, ptr, %struct.archive_string, ptr, i32, i32, ptr, ptr, i64, i64, i64, i8, i64 }
%struct.archive_string = type { ptr, i64, i64 }
%struct.archive_read_client = type { ptr, ptr, ptr, ptr, ptr, ptr, i32, i32, i64, ptr }
%struct.archive_read_filter_bidder = type { ptr, ptr, ptr }
%struct.archive_format_descriptor = type { ptr, ptr, ptr, ptr, ptr, ptr, ptr, ptr, ptr, ptr, ptr }
%struct.anon = type { ptr, ptr, i32, ptr, ptr }
%struct.cpio = type { i32, ptr, ptr, i64, i64, i64, i64, ptr, ptr, i32, i32 }

@.str.16 = private unnamed_addr constant [25 x i8] c"cpio (big-endian binary)\00", align 1
@.str.17 = private unnamed_addr constant [44 x i8] c"End of file trying to read next cpio header\00", align 1

; Function Attrs: nounwind uwtable
define internal i64 @be4(ptr noundef %0) #0 {
  %2 = alloca ptr, align 8
  store ptr %0, ptr %2, align 8, !tbaa !37
  %3 = load ptr, ptr %2, align 8, !tbaa !37
  %4 = getelementptr inbounds i8, ptr %3, i64 0
  %5 = load i8, ptr %4, align 1, !tbaa !39
  %6 = zext i8 %5 to i64
  %7 = shl i64 %6, 24
  %8 = load ptr, ptr %2, align 8, !tbaa !37
  %9 = getelementptr inbounds i8, ptr %8, i64 1
  %10 = load i8, ptr %9, align 1, !tbaa !39
  %11 = zext i8 %10 to i32
  %12 = shl i32 %11, 16
  %13 = sext i32 %12 to i64
  %14 = or i64 %7, %13
  %15 = load ptr, ptr %2, align 8, !tbaa !37
  %16 = getelementptr inbounds i8, ptr %15, i64 2
  %17 = load i8, ptr %16, align 1, !tbaa !39
  %18 = zext i8 %17 to i32
  %19 = shl i32 %18, 8
  %20 = sext i32 %19 to i64
  %21 = or i64 %14, %20
  %22 = load ptr, ptr %2, align 8, !tbaa !37
  %23 = getelementptr inbounds i8, ptr %22, i64 3
  %24 = load i8, ptr %23, align 1, !tbaa !39
  %25 = zext i8 %24 to i64
  %26 = or i64 %21, %25
  ret i64 %26
}

; Function Attrs: nounwind uwtable
define internal i32 @header_bin_be(ptr noundef %0, ptr noundef %1, ptr noundef %2, ptr noundef %3, ptr noundef %4) #0 {
  %6 = alloca i32, align 4
  %7 = alloca ptr, align 8
  %8 = alloca ptr, align 8
  %9 = alloca ptr, align 8
  %10 = alloca ptr, align 8
  %11 = alloca ptr, align 8
  %12 = alloca ptr, align 8
  %13 = alloca ptr, align 8
  %14 = alloca i32, align 4
  store ptr %0, ptr %7, align 8, !tbaa !9
  store ptr %1, ptr %8, align 8, !tbaa !13
  store ptr %2, ptr %9, align 8, !tbaa !43
  store ptr %3, ptr %10, align 8, !tbaa !50
  store ptr %4, ptr %11, align 8, !tbaa !50
  call void @llvm.lifetime.start.p0(i64 8, ptr %12) #8
  call void @llvm.lifetime.start.p0(i64 8, ptr %13) #8
  %15 = load ptr, ptr %7, align 8, !tbaa !9
  %16 = getelementptr inbounds nuw %struct.archive_read, ptr %15, i32 0, i32 0
  %17 = getelementptr inbounds nuw %struct.archive, ptr %16, i32 0, i32 3
  store i32 65539, ptr %17, align 8, !tbaa !61
  %18 = load ptr, ptr %7, align 8, !tbaa !9
  %19 = getelementptr inbounds nuw %struct.archive_read, ptr %18, i32 0, i32 0
  %20 = getelementptr inbounds nuw %struct.archive, ptr %19, i32 0, i32 4
  store ptr @.str.16, ptr %20, align 8, !tbaa !62
  %21 = load ptr, ptr %7, align 8, !tbaa !9
  %22 = call ptr @__archive_read_ahead(ptr noundef %21, i64 noundef 26, ptr noundef null)
  store ptr %22, ptr %12, align 8, !tbaa !47
  %23 = load ptr, ptr %12, align 8, !tbaa !47
  %24 = icmp eq ptr %23, null
  br i1 %24, label %25, label %28

25:                                               ; preds = %5
  %26 = load ptr, ptr %7, align 8, !tbaa !9
  %27 = getelementptr inbounds nuw %struct.archive_read, ptr %26, i32 0, i32 0
  call void (ptr, i32, ptr, ...) @archive_set_error(ptr noundef %27, i32 noundef 0, ptr noundef @.str.17)
  store i32 -30, ptr %6, align 4
  store i32 1, ptr %14, align 4
  br label %169

28:                                               ; preds = %5
  %29 = load ptr, ptr %12, align 8, !tbaa !47
  store ptr %29, ptr %13, align 8, !tbaa !37
  %30 = load ptr, ptr %9, align 8, !tbaa !43
  %31 = load ptr, ptr %13, align 8, !tbaa !37
  %32 = getelementptr inbounds i8, ptr %31, i64 2
  %33 = load i8, ptr %32, align 1, !tbaa !39
  %34 = zext i8 %33 to i32
  %35 = mul nsw i32 %34, 256
  %36 = load ptr, ptr %13, align 8, !tbaa !37
  %37 = getelementptr inbounds i8, ptr %36, i64 3
  %38 = load i8, ptr %37, align 1, !tbaa !39
  %39 = zext i8 %38 to i32
  %40 = add nsw i32 %35, %39
  %41 = sext i32 %40 to i64
  call void @archive_entry_set_dev(ptr noundef %30, i64 noundef %41)
  %42 = load ptr, ptr %9, align 8, !tbaa !43
  %43 = load ptr, ptr %13, align 8, !tbaa !37
  %44 = getelementptr inbounds i8, ptr %43, i64 4
  %45 = load i8, ptr %44, align 1, !tbaa !39
  %46 = zext i8 %45 to i32
  %47 = mul nsw i32 %46, 256
  %48 = load ptr, ptr %13, align 8, !tbaa !37
  %49 = getelementptr inbounds i8, ptr %48, i64 5
  %50 = load i8, ptr %49, align 1, !tbaa !39
  %51 = zext i8 %50 to i32
  %52 = add nsw i32 %47, %51
  %53 = sext i32 %52 to i64
  call void @archive_entry_set_ino(ptr noundef %42, i64 noundef %53)
  %54 = load ptr, ptr %9, align 8, !tbaa !43
  %55 = load ptr, ptr %13, align 8, !tbaa !37
  %56 = getelementptr inbounds i8, ptr %55, i64 6
  %57 = load i8, ptr %56, align 1, !tbaa !39
  %58 = zext i8 %57 to i32
  %59 = mul nsw i32 %58, 256
  %60 = load ptr, ptr %13, align 8, !tbaa !37
  %61 = getelementptr inbounds i8, ptr %60, i64 7
  %62 = load i8, ptr %61, align 1, !tbaa !39
  %63 = zext i8 %62 to i32
  %64 = add nsw i32 %59, %63
  call void @archive_entry_set_mode(ptr noundef %54, i32 noundef %64)
  %65 = load ptr, ptr %8, align 8, !tbaa !13
  %66 = getelementptr inbounds nuw %struct.cpio, ptr %65, i32 0, i32 10
  %67 = load i32, ptr %66, align 4, !tbaa !42
  %68 = icmp ne i32 %67, 0
  br i1 %68, label %69, label %84

69:                                               ; preds = %28
  %70 = load ptr, ptr %9, align 8, !tbaa !43
  %71 = load ptr, ptr %9, align 8, !tbaa !43
  %72 = call i32 @archive_entry_mode(ptr noundef %71)
  %73 = and i32 %72, 28671
  call void @archive_entry_set_mode(ptr noundef %70, i32 noundef %73)
  %74 = load ptr, ptr %9, align 8, !tbaa !43
  %75 = call i32 @archive_entry_mode(ptr noundef %74)
  %76 = and i32 %75, 61440
  %77 = icmp eq i32 %76, 0
  br i1 %77, label %78, label %83

78:                                               ; preds = %69
  %79 = load ptr, ptr %9, align 8, !tbaa !43
  %80 = load ptr, ptr %9, align 8, !tbaa !43
  %81 = call i32 @archive_entry_mode(ptr noundef %80)
  %82 = or i32 %81, 32768
  call void @archive_entry_set_mode(ptr noundef %79, i32 noundef %82)
  br label %83

83:                                               ; preds = %78, %69
  br label %84

84:                                               ; preds = %83, %28
  %85 = load ptr, ptr %9, align 8, !tbaa !43
  %86 = load ptr, ptr %13, align 8, !tbaa !37
  %87 = getelementptr inbounds i8, ptr %86, i64 8
  %88 = load i8, ptr %87, align 1, !tbaa !39
  %89 = zext i8 %88 to i32
  %90 = mul nsw i32 %89, 256
  %91 = load ptr, ptr %13, align 8, !tbaa !37
  %92 = getelementptr inbounds i8, ptr %91, i64 9
  %93 = load i8, ptr %92, align 1, !tbaa !39
  %94 = zext i8 %93 to i32
  %95 = add nsw i32 %90, %94
  %96 = sext i32 %95 to i64
  call void @archive_entry_set_uid(ptr noundef %85, i64 noundef %96)
  %97 = load ptr, ptr %9, align 8, !tbaa !43
  %98 = load ptr, ptr %13, align 8, !tbaa !37
  %99 = getelementptr inbounds i8, ptr %98, i64 10
  %100 = load i8, ptr %99, align 1, !tbaa !39
  %101 = zext i8 %100 to i32
  %102 = mul nsw i32 %101, 256
  %103 = load ptr, ptr %13, align 8, !tbaa !37
  %104 = getelementptr inbounds i8, ptr %103, i64 11
  %105 = load i8, ptr %104, align 1, !tbaa !39
  %106 = zext i8 %105 to i32
  %107 = add nsw i32 %102, %106
  %108 = sext i32 %107 to i64
  call void @archive_entry_set_gid(ptr noundef %97, i64 noundef %108)
  %109 = load ptr, ptr %9, align 8, !tbaa !43
  %110 = load ptr, ptr %13, align 8, !tbaa !37
  %111 = getelementptr inbounds i8, ptr %110, i64 12
  %112 = load i8, ptr %111, align 1, !tbaa !39
  %113 = zext i8 %112 to i32
  %114 = mul nsw i32 %113, 256
  %115 = load ptr, ptr %13, align 8, !tbaa !37
  %116 = getelementptr inbounds i8, ptr %115, i64 13
  %117 = load i8, ptr %116, align 1, !tbaa !39
  %118 = zext i8 %117 to i32
  %119 = add nsw i32 %114, %118
  call void @archive_entry_set_nlink(ptr noundef %109, i32 noundef %119)
  %120 = load ptr, ptr %9, align 8, !tbaa !43
  %121 = load ptr, ptr %13, align 8, !tbaa !37
  %122 = getelementptr inbounds i8, ptr %121, i64 14
  %123 = load i8, ptr %122, align 1, !tbaa !39
  %124 = zext i8 %123 to i32
  %125 = mul nsw i32 %124, 256
  %126 = load ptr, ptr %13, align 8, !tbaa !37
  %127 = getelementptr inbounds i8, ptr %126, i64 15
  %128 = load i8, ptr %127, align 1, !tbaa !39
  %129 = zext i8 %128 to i32
  %130 = add nsw i32 %125, %129
  %131 = sext i32 %130 to i64
  call void @archive_entry_set_rdev(ptr noundef %120, i64 noundef %131)
  %132 = load ptr, ptr %9, align 8, !tbaa !43
  %133 = load ptr, ptr %13, align 8, !tbaa !37
  %134 = getelementptr inbounds i8, ptr %133, i64 16
  %135 = call i64 @be4(ptr noundef %134)
  call void @archive_entry_set_mtime(ptr noundef %132, i64 noundef %135, i64 noundef 0)
  %136 = load ptr, ptr %13, align 8, !tbaa !37
  %137 = getelementptr inbounds i8, ptr %136, i64 20
  %138 = load i8, ptr %137, align 1, !tbaa !39
  %139 = zext i8 %138 to i32
  %140 = mul nsw i32 %139, 256
  %141 = load ptr, ptr %13, align 8, !tbaa !37
  %142 = getelementptr inbounds i8, ptr %141, i64 21
  %143 = load i8, ptr %142, align 1, !tbaa !39
  %144 = zext i8 %143 to i32
  %145 = add nsw i32 %140, %144
  %146 = sext i32 %145 to i64
  %147 = load ptr, ptr %10, align 8, !tbaa !50
  store i64 %146, ptr %147, align 8, !tbaa !46
  %148 = load ptr, ptr %10, align 8, !tbaa !50
  %149 = load i64, ptr %148, align 8, !tbaa !46
  %150 = and i64 %149, 1
  %151 = load ptr, ptr %11, align 8, !tbaa !50
  store i64 %150, ptr %151, align 8, !tbaa !46
  %152 = load ptr, ptr %13, align 8, !tbaa !37
  %153 = getelementptr inbounds i8, ptr %152, i64 22
  %154 = call i64 @be4(ptr noundef %153)
  %155 = load ptr, ptr %8, align 8, !tbaa !13
  %156 = getelementptr inbounds nuw %struct.cpio, ptr %155, i32 0, i32 3
  store i64 %154, ptr %156, align 8, !tbaa !49
  %157 = load ptr, ptr %9, align 8, !tbaa !43
  %158 = load ptr, ptr %8, align 8, !tbaa !13
  %159 = getelementptr inbounds nuw %struct.cpio, ptr %158, i32 0, i32 3
  %160 = load i64, ptr %159, align 8, !tbaa !49
  call void @archive_entry_set_size(ptr noundef %157, i64 noundef %160)
  %161 = load ptr, ptr %8, align 8, !tbaa !13
  %162 = getelementptr inbounds nuw %struct.cpio, ptr %161, i32 0, i32 3
  %163 = load i64, ptr %162, align 8, !tbaa !49
  %164 = and i64 %163, 1
  %165 = load ptr, ptr %8, align 8, !tbaa !13
  %166 = getelementptr inbounds nuw %struct.cpio, ptr %165, i32 0, i32 6
  store i64 %164, ptr %166, align 8, !tbaa !53
  %167 = load ptr, ptr %7, align 8, !tbaa !9
  %168 = call i64 @__archive_read_consume(ptr noundef %167, i64 noundef 26)
  store i32 0, ptr %6, align 4
  store i32 1, ptr %14, align 4
  br label %169

169:                                              ; preds = %84, %25
  call void @llvm.lifetime.end.p0(i64 8, ptr %13) #8
  call void @llvm.lifetime.end.p0(i64 8, ptr %12) #8
  %170 = load i32, ptr %6, align 4
  ret i32 %170
}