; Function Attrs: nounwind uwtable
define internal range(i32 -30, 1) i32 @header_bin_be(ptr noundef initializes((16, 20), (24, 32)) %0, ptr noundef captures(none) %1, ptr noundef %2, ptr noundef writeonly captures(none) %3, ptr noundef writeonly captures(none) %4) #0 {
  %6 = getelementptr inbounds nuw i8, ptr %0, i64 16
  store i32 65539, ptr %6, align 8, !tbaa !55
  %7 = getelementptr inbounds nuw i8, ptr %0, i64 24
  store ptr @.str.16, ptr %7, align 8, !tbaa !56
  %8 = tail call ptr @__archive_read_ahead(ptr noundef %0, i64 noundef 26, ptr noundef null) #12
  %9 = icmp eq ptr %8, null
  br i1 %9, label %10, label %11

10:                                               ; preds = %5
  tail call void (ptr, i32, ptr, ...) @archive_set_error(ptr noundef nonnull %0, i32 noundef 0, ptr noundef nonnull @.str.17) #12
  br label %130

11:                                               ; preds = %5
  %12 = getelementptr inbounds nuw i8, ptr %8, i64 2
  %13 = load i8, ptr %12, align 1, !tbaa !30
  %14 = zext i8 %13 to i64
  %15 = shl nuw nsw i64 %14, 8
  %16 = getelementptr inbounds nuw i8, ptr %8, i64 3
  %17 = load i8, ptr %16, align 1, !tbaa !30
  %18 = zext i8 %17 to i64
  %19 = or disjoint i64 %15, %18
  tail call void @archive_entry_set_dev(ptr noundef %2, i64 noundef %19) #12
  %20 = getelementptr inbounds nuw i8, ptr %8, i64 4
  %21 = load i8, ptr %20, align 1, !tbaa !30
  %22 = zext i8 %21 to i64
  %23 = shl nuw nsw i64 %22, 8
  %24 = getelementptr inbounds nuw i8, ptr %8, i64 5
  %25 = load i8, ptr %24, align 1, !tbaa !30
  %26 = zext i8 %25 to i64
  %27 = or disjoint i64 %23, %26
  tail call void @archive_entry_set_ino(ptr noundef %2, i64 noundef %27) #12
  %28 = getelementptr inbounds nuw i8, ptr %8, i64 6
  %29 = load i8, ptr %28, align 1, !tbaa !30
  %30 = zext i8 %29 to i32
  %31 = shl nuw nsw i32 %30, 8
  %32 = getelementptr inbounds nuw i8, ptr %8, i64 7
  %33 = load i8, ptr %32, align 1, !tbaa !30
  %34 = zext i8 %33 to i32
  %35 = or disjoint i32 %31, %34
  tail call void @archive_entry_set_mode(ptr noundef %2, i32 noundef %35) #12
  %36 = getelementptr inbounds nuw i8, ptr %1, i64 76
  %37 = load i32, ptr %36, align 4, !tbaa !34
  %.not = icmp eq i32 %37, 0
  br i1 %.not, label %47, label %38

38:                                               ; preds = %11
  %39 = tail call i32 @archive_entry_mode(ptr noundef %2) #12
  %40 = and i32 %39, 28671
  tail call void @archive_entry_set_mode(ptr noundef %2, i32 noundef %40) #12
  %41 = tail call i32 @archive_entry_mode(ptr noundef %2) #12
  %42 = and i32 %41, 61440
  %43 = icmp eq i32 %42, 0
  br i1 %43, label %44, label %47

44:                                               ; preds = %38
  %45 = tail call i32 @archive_entry_mode(ptr noundef %2) #12
  %46 = or i32 %45, 32768
  tail call void @archive_entry_set_mode(ptr noundef %2, i32 noundef %46) #12
  br label %47

47:                                               ; preds = %38, %44, %11
  %48 = getelementptr inbounds nuw i8, ptr %8, i64 8
  %49 = load i8, ptr %48, align 1, !tbaa !30
  %50 = zext i8 %49 to i64
  %51 = shl nuw nsw i64 %50, 8
  %52 = getelementptr inbounds nuw i8, ptr %8, i64 9
  %53 = load i8, ptr %52, align 1, !tbaa !30
  %54 = zext i8 %53 to i64
  %55 = or disjoint i64 %51, %54
  tail call void @archive_entry_set_uid(ptr noundef %2, i64 noundef %55) #12
  %56 = getelementptr inbounds nuw i8, ptr %8, i64 10
  %57 = load i8, ptr %56, align 1, !tbaa !30
  %58 = zext i8 %57 to i64
  %59 = shl nuw nsw i64 %58, 8
  %60 = getelementptr inbounds nuw i8, ptr %8, i64 11
  %61 = load i8, ptr %60, align 1, !tbaa !30
  %62 = zext i8 %61 to i64
  %63 = or disjoint i64 %59, %62
  tail call void @archive_entry_set_gid(ptr noundef %2, i64 noundef %63) #12
  %64 = getelementptr inbounds nuw i8, ptr %8, i64 12
  %65 = load i8, ptr %64, align 1, !tbaa !30
  %66 = zext i8 %65 to i32
  %67 = shl nuw nsw i32 %66, 8
  %68 = getelementptr inbounds nuw i8, ptr %8, i64 13
  %69 = load i8, ptr %68, align 1, !tbaa !30
  %70 = zext i8 %69 to i32
  %71 = or disjoint i32 %67, %70
  tail call void @archive_entry_set_nlink(ptr noundef %2, i32 noundef %71) #12
  %72 = getelementptr inbounds nuw i8, ptr %8, i64 14
  %73 = load i8, ptr %72, align 1, !tbaa !30
  %74 = zext i8 %73 to i64
  %75 = shl nuw nsw i64 %74, 8
  %76 = getelementptr inbounds nuw i8, ptr %8, i64 15
  %77 = load i8, ptr %76, align 1, !tbaa !30
  %78 = zext i8 %77 to i64
  %79 = or disjoint i64 %75, %78
  tail call void @archive_entry_set_rdev(ptr noundef %2, i64 noundef %79) #12
  %80 = getelementptr inbounds nuw i8, ptr %8, i64 16
  %81 = load i8, ptr %80, align 1, !tbaa !30
  %82 = zext i8 %81 to i64
  %83 = shl nuw nsw i64 %82, 24
  %84 = getelementptr inbounds nuw i8, ptr %8, i64 17
  %85 = load i8, ptr %84, align 1, !tbaa !30
  %86 = zext i8 %85 to i64
  %87 = shl nuw nsw i64 %86, 16
  %88 = or disjoint i64 %87, %83
  %89 = getelementptr inbounds nuw i8, ptr %8, i64 18
  %90 = load i8, ptr %89, align 1, !tbaa !30
  %91 = zext i8 %90 to i64
  %92 = shl nuw nsw i64 %91, 8
  %93 = or disjoint i64 %88, %92
  %94 = getelementptr inbounds nuw i8, ptr %8, i64 19
  %95 = load i8, ptr %94, align 1, !tbaa !30
  %96 = zext i8 %95 to i64
  %97 = or disjoint i64 %93, %96
  tail call void @archive_entry_set_mtime(ptr noundef %2, i64 noundef %97, i64 noundef 0) #12
  %98 = getelementptr inbounds nuw i8, ptr %8, i64 20
  %99 = load i8, ptr %98, align 1, !tbaa !30
  %100 = zext i8 %99 to i64
  %101 = shl nuw nsw i64 %100, 8
  %102 = getelementptr inbounds nuw i8, ptr %8, i64 21
  %103 = load i8, ptr %102, align 1, !tbaa !30
  %104 = zext i8 %103 to i64
  %105 = or disjoint i64 %101, %104
  store i64 %105, ptr %3, align 8, !tbaa !36
  %106 = and i64 %104, 1
  store i64 %106, ptr %4, align 8, !tbaa !36
  %107 = getelementptr inbounds nuw i8, ptr %8, i64 22
  %108 = load i8, ptr %107, align 1, !tbaa !30
  %109 = zext i8 %108 to i64
  %110 = shl nuw nsw i64 %109, 24
  %111 = getelementptr inbounds nuw i8, ptr %8, i64 23
  %112 = load i8, ptr %111, align 1, !tbaa !30
  %113 = zext i8 %112 to i64
  %114 = shl nuw nsw i64 %113, 16
  %115 = or disjoint i64 %114, %110
  %116 = getelementptr inbounds nuw i8, ptr %8, i64 24
  %117 = load i8, ptr %116, align 1, !tbaa !30
  %118 = zext i8 %117 to i64
  %119 = shl nuw nsw i64 %118, 8
  %120 = or disjoint i64 %115, %119
  %121 = getelementptr inbounds nuw i8, ptr %8, i64 25
  %122 = load i8, ptr %121, align 1, !tbaa !30
  %123 = zext i8 %122 to i64
  %124 = or disjoint i64 %120, %123
  %125 = getelementptr inbounds nuw i8, ptr %1, i64 24
  store i64 %124, ptr %125, align 8, !tbaa !39
  tail call void @archive_entry_set_size(ptr noundef %2, i64 noundef %124) #12
  %126 = load i64, ptr %125, align 8, !tbaa !39
  %127 = and i64 %126, 1
  %128 = getelementptr inbounds nuw i8, ptr %1, i64 48
  store i64 %127, ptr %128, align 8, !tbaa !53
  %129 = tail call i64 @__archive_read_consume(ptr noundef nonnull %0, i64 noundef 26) #12
  br label %130

130:                                              ; preds = %47, %10
  %.0 = phi i32 [ -30, %10 ], [ 0, %47 ]
  ret i32 %.0
}